; Function Attrs: mustprogress uwtable
define void @_ZN8facebook6hermes13HermesRuntime21getIOTrackingInfoJSONB5cxx11Ev(ptr noalias nonnull sret(%"class.std::__cxx11::basic_string") align 8 %agg.result, ptr nocapture noundef nonnull readonly align 8 dereferenceable(8) %this) local_unnamed_addr #0 align 2 personality ptr @__gxx_personality_v0 {
entry:
  %strstrm = alloca %"class.llvh::raw_string_ostream", align 8
  tail call void @_ZNSt7__cxx1112basic_stringIcSt11char_traitsIcESaIcEEC1Ev(ptr noundef nonnull align 8 dereferenceable(32) %agg.result) #37
  %BufferMode.i.i = getelementptr inbounds i8, ptr %strstrm, i64 32
  store i32 1, ptr %BufferMode.i.i, align 8
  %OutBufStart.i.i = getelementptr inbounds i8, ptr %strstrm, i64 8
  call void @llvm.memset.p0.i64(ptr noundef nonnull align 8 dereferenceable(24) %OutBufStart.i.i, i8 0, i64 24, i1 false)
  store ptr getelementptr inbounds ({ [13 x ptr] }, ptr @_ZTVN4llvh18raw_string_ostreamE, i64 0, i32 0, i64 2), ptr %strstrm, align 8
  %OS.i = getelementptr inbounds i8, ptr %strstrm, i64 40
  store ptr %agg.result, ptr %OS.i, align 8
  %runtime_ = getelementptr inbounds i8, ptr %this, i64 128
  %0 = load ptr, ptr %runtime_, align 8
  invoke void @_ZN6hermes2vm7Runtime21getIOTrackingInfoJSONERN4llvh11raw_ostreamE(ptr noundef nonnull align 8 dereferenceable(9832) %0, ptr noundef nonnull align 8 dereferenceable(36) %strstrm)
          to label %invoke.cont3 unwind label %lpad2

invoke.cont3:                                     ; preds = %entry
  %OutBufCur.i = getelementptr inbounds i8, ptr %strstrm, i64 24
  %1 = load ptr, ptr %OutBufCur.i, align 8
  %2 = load ptr, ptr %OutBufStart.i.i, align 8
  %cmp.not.i = icmp eq ptr %1, %2
  br i1 %cmp.not.i, label %invoke.cont4, label %if.then.i

if.then.i:                                        ; preds = %invoke.cont3
  invoke void @_ZN4llvh11raw_ostream14flush_nonemptyEv(ptr noundef nonnull align 8 dereferenceable(36) %strstrm)
          to label %invoke.cont4 unwind label %lpad2

invoke.cont4:                                     ; preds = %invoke.cont3, %if.then.i
  call void @_ZN4llvh18raw_string_ostreamD1Ev(ptr noundef nonnull align 8 dereferenceable(48) %strstrm) #37
  ret void

lpad2:                                            ; preds = %if.then.i, %entry
  %3 = landingpad { ptr, i32 }
          cleanup
  call void @_ZN4llvh18raw_string_ostreamD1Ev(ptr noundef nonnull align 8 dereferenceable(48) %strstrm) #37
  call void @_ZNSt7__cxx1112basic_stringIcSt11char_traitsIcESaIcEED1Ev(ptr noundef nonnull align 8 dereferenceable(32) %agg.result) #37
  resume { ptr, i32 } %3
}